target datalayout = "e-m:e-p270:32:32-p271:32:32-p272:64:64-i64:64-i128:128-f80:128-n8:16:32:64-S128"
target triple = "x86_64-pc-linux-gnu"

%struct.preference = type { ptr, ptr, ptr, i32, i32, i32, %union.anon, %union.anon.0, %union.anon.1, %union.anon.2, %struct.pref_custom_cbs, ptr, ptr }
%union.anon = type { ptr }
%union.anon.0 = type { ptr }
%union.anon.1 = type { ptr }
%union.anon.2 = type { %struct.anon }
%struct.anon = type { ptr, i8 }
%struct.pref_custom_cbs = type { ptr, ptr, ptr, ptr, ptr, ptr, ptr }

; Function Attrs: null_pointer_is_valid sspstrong uwtable
define internal void @reset_string_like_preference(ptr noundef %0) #1 {
  %2 = alloca ptr, align 8
  store ptr %0, ptr %2, align 8
  %3 = load ptr, ptr %2, align 8
  %4 = getelementptr inbounds nuw %struct.preference, ptr %3, i32 0, i32 6
  %5 = load ptr, ptr %4, align 8
  %6 = load ptr, ptr %5, align 8
  call void @g_free(ptr noundef %6)
  %7 = load ptr, ptr %2, align 8
  %8 = getelementptr inbounds nuw %struct.preference, ptr %7, i32 0, i32 8
  %9 = load ptr, ptr %8, align 8
  %10 = call noalias ptr @g_strdup(ptr noundef %9)
  %11 = load ptr, ptr %2, align 8
  %12 = getelementptr inbounds nuw %struct.preference, ptr %11, i32 0, i32 6
  %13 = load ptr, ptr %12, align 8
  store ptr %10, ptr %13, align 8
  ret void
}